target datalayout = "e-m:e-p270:32:32-p271:32:32-p272:64:64-i64:64-i128:128-f80:128-n8:16:32:64-S128"
target triple = "x86_64-pc-linux-gnu"

%"class.llvm::MemoryBufferRef" = type { %"class.llvm::StringRef", %"class.llvm::StringRef" }
%"class.llvm::StringRef" = type { ptr, i64 }
%"class.llvm::object::TapiFile" = type { %"class.llvm::object::SymbolicFile", %"class.std::vector", i8, i32 }
%"class.llvm::object::SymbolicFile" = type { %"class.llvm::object::Binary" }
%"class.llvm::object::Binary" = type { ptr, i32, %"class.llvm::MemoryBufferRef" }
%"class.std::vector" = type { %"struct.std::_Vector_base" }
%"struct.std::_Vector_base" = type { %"struct.std::_Vector_base<llvm::object::TapiFile::Symbol, std::allocator<llvm::object::TapiFile::Symbol>>::_Vector_impl" }
%"struct.std::_Vector_base<llvm::object::TapiFile::Symbol, std::allocator<llvm::object::TapiFile::Symbol>>::_Vector_impl" = type { %"struct.std::_Vector_base<llvm::object::TapiFile::Symbol, std::allocator<llvm::object::TapiFile::Symbol>>::_Vector_impl_data" }
%"struct.std::_Vector_base<llvm::object::TapiFile::Symbol, std::allocator<llvm::object::TapiFile::Symbol>>::_Vector_impl_data" = type { ptr, ptr, ptr }
%struct.anon = type { i32, i32 }
%"union.llvm::object::DataRefImpl" = type { i64 }
%"class.llvm::object::content_iterator" = type { %"class.llvm::object::BasicSymbolRef" }
%"class.llvm::object::BasicSymbolRef" = type { %"union.llvm::object::DataRefImpl", ptr }

; Function Attrs: mustprogress nounwind uwtable
define linkonce_odr hidden void @_ZN4llvm6object16content_iteratorINS0_14BasicSymbolRefEEC2ES2_(ptr noundef nonnull align 8 dereferenceable(16) %0, i64 %1, ptr %2) unnamed_addr #0 comdat align 2 {
  %4 = alloca %"class.llvm::object::BasicSymbolRef", align 8
  %5 = alloca ptr, align 8
  %6 = getelementptr inbounds nuw { i64, ptr }, ptr %4, i32 0, i32 0
  store i64 %1, ptr %6, align 8
  %7 = getelementptr inbounds nuw { i64, ptr }, ptr %4, i32 0, i32 1
  store ptr %2, ptr %7, align 8
  store ptr %0, ptr %5, align 8
  %8 = load ptr, ptr %5, align 8
  %9 = getelementptr inbounds nuw %"class.llvm::object::content_iterator", ptr %8, i32 0, i32 0
  call void @llvm.memcpy.p0.p0.i64(ptr align 8 %9, ptr align 8 %4, i64 16, i1 false)
  ret void
}

; Function Attrs: mustprogress nounwind uwtable
define linkonce_odr hidden void @_ZN4llvm6object14BasicSymbolRefC2ENS0_11DataRefImplEPKNS0_12SymbolicFileE(ptr noundef nonnull align 8 dereferenceable(16) %0, i64 %1, ptr noundef %2) unnamed_addr #0 comdat align 2 {
  %4 = alloca %"union.llvm::object::DataRefImpl", align 8
  %5 = alloca ptr, align 8
  %6 = alloca ptr, align 8
  %7 = getelementptr inbounds nuw %"union.llvm::object::DataRefImpl", ptr %4, i32 0, i32 0
  store i64 %1, ptr %7, align 8
  store ptr %0, ptr %5, align 8
  store ptr %2, ptr %6, align 8
  %8 = load ptr, ptr %5, align 8
  %9 = getelementptr inbounds nuw %"class.llvm::object::BasicSymbolRef", ptr %8, i32 0, i32 0
  call void @llvm.memcpy.p0.p0.i64(ptr align 8 %9, ptr align 8 %4, i64 8, i1 false)
  %10 = getelementptr inbounds nuw %"class.llvm::object::BasicSymbolRef", ptr %8, i32 0, i32 1
  %11 = load ptr, ptr %6, align 8
  store ptr %11, ptr %10, align 8
  ret void
}

; Function Attrs: mustprogress nounwind uwtable
define linkonce_odr hidden noundef i64 @_ZNKSt6vectorIN4llvm6object8TapiFile6SymbolESaIS3_EE4sizeEv(ptr noundef nonnull align 8 dereferenceable(24) %0) #0 comdat align 2 {
  %2 = alloca ptr, align 8
  store ptr %0, ptr %2, align 8
  %3 = load ptr, ptr %2, align 8
  %4 = getelementptr inbounds nuw %"struct.std::_Vector_base", ptr %3, i32 0, i32 0
  %5 = getelementptr inbounds nuw %"struct.std::_Vector_base<llvm::object::TapiFile::Symbol, std::allocator<llvm::object::TapiFile::Symbol>>::_Vector_impl_data", ptr %4, i32 0, i32 1
  %6 = load ptr, ptr %5, align 8
  %7 = getelementptr inbounds nuw %"struct.std::_Vector_base", ptr %3, i32 0, i32 0
  %8 = getelementptr inbounds nuw %"struct.std::_Vector_base<llvm::object::TapiFile::Symbol, std::allocator<llvm::object::TapiFile::Symbol>>::_Vector_impl_data", ptr %7, i32 0, i32 0
  %9 = load ptr, ptr %8, align 8
  %10 = ptrtoint ptr %6 to i64
  %11 = ptrtoint ptr %9 to i64
  %12 = sub i64 %10, %11
  %13 = sdiv exact i64 %12, 40
  ret i64 %13
}

; Function Attrs: mustprogress nounwind uwtable
define linkonce_odr hidden void @_ZN4llvm6object11DataRefImplC2Ev(ptr noundef nonnull align 8 dereferenceable(8) %0) unnamed_addr #0 comdat align 2 {
  %2 = alloca ptr, align 8
  store ptr %0, ptr %2, align 8
  %3 = load ptr, ptr %2, align 8
  call void @llvm.memset.p0.i64(ptr align 8 %3, i8 0, i64 8, i1 false)
  ret void
}

; Function Attrs: mustprogress nounwind uwtable
define dso_local { i64, ptr } @_ZNK4llvm6object8TapiFile10symbol_endEv(ptr noundef nonnull align 8 dereferenceable(80) %0) unnamed_addr #0 align 2 {
  %2 = alloca %"class.llvm::object::content_iterator", align 8
  %3 = alloca ptr, align 8
  %4 = alloca %"union.llvm::object::DataRefImpl", align 8
  %5 = alloca %"class.llvm::object::BasicSymbolRef", align 8
  %6 = alloca %"union.llvm::object::DataRefImpl", align 8
  store ptr %0, ptr %3, align 8
  %7 = load ptr, ptr %3, align 8
  call void @_ZN4llvm6object11DataRefImplC2Ev(ptr noundef nonnull align 8 dereferenceable(8) %4)
  %8 = getelementptr inbounds nuw %"class.llvm::object::TapiFile", ptr %7, i32 0, i32 1
  %9 = call noundef i64 @_ZNKSt6vectorIN4llvm6object8TapiFile6SymbolESaIS3_EE4sizeEv(ptr noundef nonnull align 8 dereferenceable(24) %8) #9
  %10 = trunc i64 %9 to i32
  %11 = getelementptr inbounds nuw %struct.anon, ptr %4, i32 0, i32 0
  store i32 %10, ptr %11, align 8
  call void @llvm.memcpy.p0.p0.i64(ptr align 8 %6, ptr align 8 %4, i64 8, i1 false)
  %12 = getelementptr inbounds nuw %"union.llvm::object::DataRefImpl", ptr %6, i32 0, i32 0
  %13 = load i64, ptr %12, align 8
  call void @_ZN4llvm6object14BasicSymbolRefC2ENS0_11DataRefImplEPKNS0_12SymbolicFileE(ptr noundef nonnull align 8 dereferenceable(16) %5, i64 %13, ptr noundef %7)
  %14 = getelementptr inbounds nuw { i64, ptr }, ptr %5, i32 0, i32 0
  %15 = load i64, ptr %14, align 8
  %16 = getelementptr inbounds nuw { i64, ptr }, ptr %5, i32 0, i32 1
  %17 = load ptr, ptr %16, align 8
  call void @_ZN4llvm6object16content_iteratorINS0_14BasicSymbolRefEEC2ES2_(ptr noundef nonnull align 8 dereferenceable(16) %2, i64 %15, ptr %17)
  %18 = getelementptr inbounds nuw %"class.llvm::object::content_iterator", ptr %2, i32 0, i32 0
  %19 = load { i64, ptr }, ptr %18, align 8
  ret { i64, ptr } %19
}