; Function Attrs: mustprogress nofree norecurse nosync nounwind willreturn memory(argmem: read) uwtable
define dso_local { i64, ptr } @_ZNK4llvm6object8TapiFile10symbol_endEv(ptr noundef nonnull align 8 dereferenceable(80) %0) unnamed_addr #9 align 2 {
  %2 = getelementptr inbounds nuw i8, ptr %0, i64 48
  %3 = getelementptr inbounds i8, ptr %0, i64 56
  %4 = load ptr, ptr %3, align 8
  %5 = load ptr, ptr %2, align 8
  %6 = ptrtoint ptr %4 to i64
  %7 = ptrtoint ptr %5 to i64
  %8 = sub i64 %6, %7
  %9 = sdiv exact i64 %8, 40
  %.sroa.01.0.insert.ext = and i64 %9, 4294967295
  %.fca.0.insert = insertvalue { i64, ptr } poison, i64 %.sroa.01.0.insert.ext, 0
  %.fca.1.insert = insertvalue { i64, ptr } %.fca.0.insert, ptr %0, 1
  ret { i64, ptr } %.fca.1.insert
}